target datalayout = "e-m:e-p270:32:32-p271:32:32-p272:64:64-i64:64-i128:128-f80:128-n8:16:32:64-S128"
target triple = "x86_64-pc-linux-gnu"

@.str.71 = private unnamed_addr constant [2 x i8] c"r\00", align 1

; Function Attrs: mustprogress uwtable
define internal noundef zeroext i1 @_ZL10empty_fileRKNSt10filesystem7__cxx114pathE(ptr noundef nonnull align 8 dereferenceable(40) %0) #1 {
  %2 = alloca ptr, align 8
  %3 = alloca ptr, align 8
  %4 = alloca i8, align 1
  %5 = alloca i32, align 4
  %6 = alloca i8, align 1
  store ptr %0, ptr %2, align 8
  %7 = load ptr, ptr %2, align 8
  %8 = call noundef ptr @_Z13gmx_fio_fopenRKNSt10filesystem7__cxx114pathEPKc(ptr noundef nonnull align 8 dereferenceable(40) %7, ptr noundef @.str.71)
  store ptr %8, ptr %3, align 8
  %9 = load ptr, ptr %3, align 8
  %10 = call i64 @fread(ptr noundef %4, i64 noundef 1, i64 noundef 1, ptr noundef %9)
  %11 = trunc i64 %10 to i32
  store i32 %11, ptr %5, align 4
  %12 = load ptr, ptr %3, align 8
  %13 = call i32 @feof(ptr noundef %12) #9
  %14 = icmp ne i32 %13, 0
  %15 = zext i1 %14 to i8
  store i8 %15, ptr %6, align 1
  %16 = load ptr, ptr %3, align 8
  %17 = call noundef i32 @_Z14gmx_fio_fcloseP8_IO_FILE(ptr noundef %16)
  %18 = load i8, ptr %6, align 1
  %19 = trunc i8 %18 to i1
  br i1 %19, label %20, label %23

20:                                               ; preds = %1
  %21 = load i32, ptr %5, align 4
  %22 = icmp eq i32 %21, 0
  br label %23

23:                                               ; preds = %20, %1
  %24 = phi i1 [ false, %1 ], [ %22, %20 ]
  ret i1 %24
}