; Function Attrs: mustprogress uwtable
define internal fastcc noundef zeroext i1 @_ZL10empty_fileRKNSt10filesystem7__cxx114pathE(ptr noundef nonnull align 8 dereferenceable(40) %0) unnamed_addr #1 {
  %2 = alloca i8, align 1
  %3 = tail call noundef ptr @_Z13gmx_fio_fopenRKNSt10filesystem7__cxx114pathEPKc(ptr noundef nonnull align 8 dereferenceable(40) %0, ptr noundef nonnull @.str.71)
  %4 = call i64 @fread(ptr noundef nonnull %2, i64 noundef 1, i64 noundef 1, ptr noundef %3)
  %5 = tail call i32 @feof(ptr noundef %3) #17
  %6 = icmp ne i32 %5, 0
  %7 = tail call noundef i32 @_Z14gmx_fio_fcloseP8_IO_FILE(ptr noundef %3)
  %8 = and i64 %4, 4294967295
  %9 = icmp eq i64 %8, 0
  %10 = and i1 %6, %9
  ret i1 %10
}